; Function Attrs: nounwind uwtable
define range(i32 -1, -2147483648) i32 @H5Tget_array_dims2(i64 noundef %0, ptr noundef writeonly %1) local_unnamed_addr #0 {
  %3 = load i8, ptr @H5_libinit_g, align 1
  %4 = trunc i8 %3 to i1
  %5 = load i8, ptr @H5_libterm_g, align 1
  %6 = trunc i8 %5 to i1
  %7 = select i1 %4, i1 true, i1 %6
  br i1 %7, label %15, label %8

8:                                                ; preds = %2
  %9 = tail call i32 @H5_init_library() #5
  %10 = icmp slt i32 %9, 0
  br i1 %10, label %11, label %15

11:                                               ; preds = %8
  %12 = load i64, ptr @H5E_FUNC_g, align 8
  %13 = load i64, ptr @H5E_CANTINIT_g, align 8
  %14 = tail call i32 (ptr, ptr, i32, i64, i64, ptr, ...) @H5E_printf_stack(ptr noundef nonnull @.str, ptr noundef nonnull @__func__.H5Tget_array_dims2, i32 noundef 245, i64 noundef %12, i64 noundef %13, ptr noundef nonnull @.str.1) #5
  br label %.thread23

15:                                               ; preds = %8, %2
  %16 = tail call i32 @H5CX_push() #5
  %17 = icmp slt i32 %16, 0
  br i1 %17, label %18, label %22

18:                                               ; preds = %15
  %19 = load i64, ptr @H5E_FUNC_g, align 8
  %20 = load i64, ptr @H5E_CANTSET_g, align 8
  %21 = tail call i32 (ptr, ptr, i32, i64, i64, ptr, ...) @H5E_printf_stack(ptr noundef nonnull @.str, ptr noundef nonnull @__func__.H5Tget_array_dims2, i32 noundef 245, i64 noundef %19, i64 noundef %20, ptr noundef nonnull @.str.2) #5
  br label %.thread23

22:                                               ; preds = %15
  %23 = tail call i32 @H5E_clear_stack() #5
  %24 = tail call ptr @H5I_object_verify(i64 noundef %0, i32 noundef 3) #5
  %25 = icmp eq ptr %24, null
  br i1 %25, label %26, label %30

26:                                               ; preds = %22
  %27 = load i64, ptr @H5E_ARGS_g, align 8
  %28 = load i64, ptr @H5E_BADTYPE_g, align 8
  %29 = tail call i32 (ptr, ptr, i32, i64, i64, ptr, ...) @H5E_printf_stack(ptr noundef nonnull @.str, ptr noundef nonnull @__func__.H5Tget_array_dims2, i32 noundef 249, i64 noundef %27, i64 noundef %28, ptr noundef nonnull @.str.12) #5
  br label %.thread29

30:                                               ; preds = %22
  %31 = getelementptr inbounds i8, ptr %24, i64 40
  %32 = load ptr, ptr %31, align 8
  %33 = getelementptr inbounds i8, ptr %32, i64 12
  %34 = load i32, ptr %33, align 4
  %.not = icmp eq i32 %34, 10
  br i1 %.not, label %39, label %35

35:                                               ; preds = %30
  %36 = load i64, ptr @H5E_ARGS_g, align 8
  %37 = load i64, ptr @H5E_BADTYPE_g, align 8
  %38 = tail call i32 (ptr, ptr, i32, i64, i64, ptr, ...) @H5E_printf_stack(ptr noundef nonnull @.str, ptr noundef nonnull @__func__.H5Tget_array_dims2, i32 noundef 251, i64 noundef %36, i64 noundef %37, ptr noundef nonnull @.str.13) #5
  br label %.thread29

39:                                               ; preds = %30
  %.not.i = icmp eq ptr %1, null
  %.phi.trans.insert12.i = getelementptr inbounds i8, ptr %32, i64 56
  %.pre13.i = load i32, ptr %.phi.trans.insert12.i, align 8
  br i1 %.not.i, label %H5T__get_array_dims.exit, label %.preheader.i

.preheader.i:                                     ; preds = %39
  %.not10.i = icmp eq i32 %.pre13.i, 0
  br i1 %.not10.i, label %H5T__get_array_dims.exit.thread, label %.lr.ph.i

.lr.ph.i:                                         ; preds = %.preheader.i, %.lr.ph.i
  %indvars.iv.i = phi i64 [ %indvars.iv.next.i, %.lr.ph.i ], [ 0, %.preheader.i ]
  %40 = phi ptr [ %45, %.lr.ph.i ], [ %32, %.preheader.i ]
  %41 = getelementptr inbounds i8, ptr %40, i64 64
  %42 = getelementptr inbounds [32 x i64], ptr %41, i64 0, i64 %indvars.iv.i
  %43 = load i64, ptr %42, align 8
  %44 = getelementptr inbounds i64, ptr %1, i64 %indvars.iv.i
  store i64 %43, ptr %44, align 8
  %indvars.iv.next.i = add nuw nsw i64 %indvars.iv.i, 1
  %45 = load ptr, ptr %31, align 8
  %46 = getelementptr inbounds i8, ptr %45, i64 56
  %47 = load i32, ptr %46, align 8
  %48 = zext i32 %47 to i64
  %49 = icmp ult i64 %indvars.iv.next.i, %48
  br i1 %49, label %.lr.ph.i, label %H5T__get_array_dims.exit

H5T__get_array_dims.exit:                         ; preds = %.lr.ph.i, %39
  %50 = phi i32 [ %.pre13.i, %39 ], [ %47, %.lr.ph.i ]
  %51 = icmp slt i32 %50, 0
  br i1 %51, label %52, label %H5T__get_array_dims.exit.thread

52:                                               ; preds = %H5T__get_array_dims.exit
  %53 = load i64, ptr @H5E_ARGS_g, align 8
  %54 = load i64, ptr @H5E_BADTYPE_g, align 8
  %55 = tail call i32 (ptr, ptr, i32, i64, i64, ptr, ...) @H5E_printf_stack(ptr noundef nonnull @.str, ptr noundef nonnull @__func__.H5Tget_array_dims2, i32 noundef 255, i64 noundef %53, i64 noundef %54, ptr noundef nonnull @.str.14) #5
  br label %.thread29

.thread29:                                        ; preds = %52, %35, %26
  %56 = tail call i32 @H5CX_pop(i1 noundef zeroext true) #5
  br label %.thread23

H5T__get_array_dims.exit.thread:                  ; preds = %.preheader.i, %H5T__get_array_dims.exit
  %.012.ph = phi i32 [ %50, %H5T__get_array_dims.exit ], [ 0, %.preheader.i ]
  %57 = tail call i32 @H5CX_pop(i1 noundef zeroext true) #5
  br label %59

.thread23:                                        ; preds = %18, %11, %.thread29
  %58 = tail call i32 @H5E_dump_api_stack() #5
  br label %59

59:                                               ; preds = %H5T__get_array_dims.exit.thread, %.thread23
  %.0121826 = phi i32 [ -1, %.thread23 ], [ %.012.ph, %H5T__get_array_dims.exit.thread ]
  ret i32 %.0121826
}